; Function Attrs: mustprogress nounwind uwtable
define void @_ZN5Ipopt16TSymLinearSolverD2Ev(ptr noundef nonnull align 8 dereferenceable(133) %0) unnamed_addr #4 align 2 personality ptr @__gxx_personality_v0 {
  store ptr getelementptr inbounds ({ [9 x ptr] }, ptr @_ZTVN5Ipopt16TSymLinearSolverE, i64 0, i32 0, i64 2), ptr %0, align 8
  %2 = getelementptr inbounds i8, ptr %0, i64 104
  %3 = load ptr, ptr %2, align 8
  %4 = icmp eq ptr %3, null
  br i1 %4, label %6, label %5

5:                                                ; preds = %1
  tail call void @_ZdaPv(ptr noundef nonnull %3) #14
  br label %6

6:                                                ; preds = %5, %1
  %7 = getelementptr inbounds i8, ptr %0, i64 112
  %8 = load ptr, ptr %7, align 8
  %9 = icmp eq ptr %8, null
  br i1 %9, label %11, label %10

10:                                               ; preds = %6
  tail call void @_ZdaPv(ptr noundef nonnull %8) #14
  br label %11

11:                                               ; preds = %10, %6
  %12 = getelementptr inbounds i8, ptr %0, i64 88
  %13 = load ptr, ptr %12, align 8
  %14 = icmp eq ptr %13, null
  br i1 %14, label %16, label %15

15:                                               ; preds = %11
  tail call void @_ZdaPv(ptr noundef nonnull %13) #14
  br label %16

16:                                               ; preds = %15, %11
  %17 = getelementptr inbounds i8, ptr %0, i64 120
  %18 = load ptr, ptr %17, align 8
  %.not.i.i = icmp eq ptr %18, null
  br i1 %.not.i.i, label %_ZN5Ipopt8SmartPtrINS_21TripletToCSRConverterEED2Ev.exit, label %19

19:                                               ; preds = %16
  %20 = getelementptr inbounds i8, ptr %18, i64 8
  %21 = load i32, ptr %20, align 8
  %22 = add nsw i32 %21, -1
  store i32 %22, ptr %20, align 8
  %23 = load ptr, ptr %17, align 8
  %24 = getelementptr inbounds i8, ptr %23, i64 8
  %25 = load i32, ptr %24, align 8
  %26 = icmp eq i32 %25, 0
  br i1 %26, label %27, label %_ZN5Ipopt8SmartPtrINS_21TripletToCSRConverterEED2Ev.exit

27:                                               ; preds = %19
  %28 = load ptr, ptr %23, align 8
  %29 = getelementptr inbounds i8, ptr %28, i64 8
  %30 = load ptr, ptr %29, align 8
  tail call void %30(ptr noundef nonnull align 8 dereferenceable(88) %23) #13
  br label %_ZN5Ipopt8SmartPtrINS_21TripletToCSRConverterEED2Ev.exit

_ZN5Ipopt8SmartPtrINS_21TripletToCSRConverterEED2Ev.exit: ; preds = %16, %19, %27
  %31 = getelementptr inbounds i8, ptr %0, i64 80
  %32 = load ptr, ptr %31, align 8
  %.not.i.i3 = icmp eq ptr %32, null
  br i1 %.not.i.i3, label %_ZN5Ipopt8SmartPtrINS_17TSymScalingMethodEED2Ev.exit, label %33

33:                                               ; preds = %_ZN5Ipopt8SmartPtrINS_21TripletToCSRConverterEED2Ev.exit
  %34 = getelementptr inbounds i8, ptr %32, i64 8
  %35 = load i32, ptr %34, align 8
  %36 = add nsw i32 %35, -1
  store i32 %36, ptr %34, align 8
  %37 = load ptr, ptr %31, align 8
  %38 = getelementptr inbounds i8, ptr %37, i64 8
  %39 = load i32, ptr %38, align 8
  %40 = icmp eq i32 %39, 0
  br i1 %40, label %41, label %_ZN5Ipopt8SmartPtrINS_17TSymScalingMethodEED2Ev.exit

41:                                               ; preds = %33
  %42 = load ptr, ptr %37, align 8
  %43 = getelementptr inbounds i8, ptr %42, i64 8
  %44 = load ptr, ptr %43, align 8
  tail call void %44(ptr noundef nonnull align 8 dereferenceable(49) %37) #13
  br label %_ZN5Ipopt8SmartPtrINS_17TSymScalingMethodEED2Ev.exit

_ZN5Ipopt8SmartPtrINS_17TSymScalingMethodEED2Ev.exit: ; preds = %_ZN5Ipopt8SmartPtrINS_21TripletToCSRConverterEED2Ev.exit, %33, %41
  %45 = getelementptr inbounds i8, ptr %0, i64 72
  %46 = load ptr, ptr %45, align 8
  %.not.i.i4 = icmp eq ptr %46, null
  br i1 %.not.i.i4, label %_ZN5Ipopt8SmartPtrINS_30SparseSymLinearSolverInterfaceEED2Ev.exit, label %47

47:                                               ; preds = %_ZN5Ipopt8SmartPtrINS_17TSymScalingMethodEED2Ev.exit
  %48 = getelementptr inbounds i8, ptr %46, i64 8
  %49 = load i32, ptr %48, align 8
  %50 = add nsw i32 %49, -1
  store i32 %50, ptr %48, align 8
  %51 = load ptr, ptr %45, align 8
  %52 = getelementptr inbounds i8, ptr %51, i64 8
  %53 = load i32, ptr %52, align 8
  %54 = icmp eq i32 %53, 0
  br i1 %54, label %55, label %_ZN5Ipopt8SmartPtrINS_30SparseSymLinearSolverInterfaceEED2Ev.exit

55:                                               ; preds = %47
  %56 = load ptr, ptr %51, align 8
  %57 = getelementptr inbounds i8, ptr %56, i64 8
  %58 = load ptr, ptr %57, align 8
  tail call void %58(ptr noundef nonnull align 8 dereferenceable(49) %51) #13
  br label %_ZN5Ipopt8SmartPtrINS_30SparseSymLinearSolverInterfaceEED2Ev.exit

_ZN5Ipopt8SmartPtrINS_30SparseSymLinearSolverInterfaceEED2Ev.exit: ; preds = %_ZN5Ipopt8SmartPtrINS_17TSymScalingMethodEED2Ev.exit, %47, %55
  tail call void @_ZN5Ipopt23AlgorithmStrategyObjectD2Ev(ptr noundef nonnull align 8 dereferenceable(49) %0) #13
  ret void
}